; Function Attrs: nounwind uwtable
define internal fastcc ptr @bind_to_bitfield(ptr noundef %0, ptr noundef %1, ptr noundef %2, i32 noundef %3, i32 noundef %4, i1 noundef zeroext %5, i32 noundef range(i32 0, 3) %6) unnamed_addr #0 {
  %.not = icmp eq ptr %0, null
  br i1 %.not, label %.preheader, label %8

.preheader:                                       ; preds = %7, %.preheader
  br label %.preheader

8:                                                ; preds = %7
  %.not21 = icmp eq ptr %1, null
  br i1 %.not21, label %.preheader23, label %9

.preheader23:                                     ; preds = %8, %.preheader23
  br label %.preheader23

9:                                                ; preds = %8
  %10 = getelementptr inbounds nuw i8, ptr %0, i64 48
  %11 = load i32, ptr %10, align 8
  %12 = and i32 %11, 15
  %.not22 = icmp eq i32 %12, 2
  br i1 %.not22, label %13, label %41

13:                                               ; preds = %9
  %14 = tail call ptr @lv_malloc(i64 noundef 24) #9
  %15 = icmp eq ptr %14, null
  br i1 %15, label %41, label %16

16:                                               ; preds = %13
  store i32 %3, ptr %14, align 8, !tbaa !33
  %17 = getelementptr inbounds nuw i8, ptr %14, i64 8
  store i32 %4, ptr %17, align 8, !tbaa !3
  %18 = getelementptr inbounds nuw i8, ptr %14, i64 16
  %19 = zext i1 %5 to i8
  %20 = load i8, ptr %18, align 8
  %21 = and i8 %20, -16
  %22 = or disjoint i8 %21, %19
  %23 = trunc nuw nsw i32 %6 to i8
  %24 = shl nuw nsw i8 %23, 1
  %25 = or disjoint i8 %22, %24
  store i8 %25, ptr %18, align 8
  %26 = load i32, ptr %10, align 8
  %27 = and i32 %26, 15
  %28 = icmp ne i32 %27, 0
  tail call void @llvm.assume(i1 %28)
  %29 = tail call ptr @lv_ll_ins_tail(ptr noundef nonnull %0) #9
  %.not28.i = icmp eq ptr %29, null
  br i1 %.not28.i, label %.preheader31.i, label %30

.preheader31.i:                                   ; preds = %16, %.preheader31.i
  br label %.preheader31.i

30:                                               ; preds = %16
  tail call void @lv_memset(ptr noundef nonnull %29, i8 noundef zeroext 0, i64 noundef 40) #9
  store ptr %0, ptr %29, align 8, !tbaa !9
  %31 = getelementptr inbounds nuw i8, ptr %29, i64 8
  store ptr %2, ptr %31, align 8, !tbaa !12
  %32 = getelementptr inbounds nuw i8, ptr %29, i64 24
  store ptr %14, ptr %32, align 8, !tbaa !13
  %33 = getelementptr inbounds nuw i8, ptr %29, i64 16
  store ptr %1, ptr %33, align 8, !tbaa !14
  %34 = getelementptr inbounds nuw i8, ptr %29, i64 32
  %35 = load i8, ptr %34, align 8
  %36 = or i8 %35, 4
  store i8 %36, ptr %34, align 8
  %37 = tail call ptr @lv_obj_add_event_cb(ptr noundef nonnull %1, ptr noundef nonnull @unsubscribe_on_delete_cb, i32 noundef 41, ptr noundef nonnull %29) #9
  %.pre.i = load ptr, ptr %31, align 8, !tbaa !12
  %.not30.i = icmp eq ptr %.pre.i, null
  br i1 %.not30.i, label %lv_subject_add_observer_obj.exit, label %38

38:                                               ; preds = %30
  tail call void %.pre.i(ptr noundef nonnull %29, ptr noundef nonnull %0) #9
  br label %lv_subject_add_observer_obj.exit

lv_subject_add_observer_obj.exit:                 ; preds = %30, %38
  %39 = load i8, ptr %34, align 8
  %40 = or i8 %39, 1
  store i8 %40, ptr %34, align 8
  br label %41

41:                                               ; preds = %lv_subject_add_observer_obj.exit, %13, %9
  %.0 = phi ptr [ null, %9 ], [ %29, %lv_subject_add_observer_obj.exit ], [ null, %13 ]
  ret ptr %.0
}